; Function Attrs: nounwind uwtable
define dso_local range(i32 -1, 1) i32 @rdbSaveToFile(ptr noundef %0) local_unnamed_addr #0 {
  %2 = tail call i32 @getpid() #23
  %3 = load i32, ptr @server, align 8, !tbaa !168
  %.not4.i = icmp eq i32 %2, %3
  %..i = select i1 %.not4.i, i32 2, i32 0
  tail call void @moduleFireServerEvent(i64 noundef 1, i32 noundef %..i, ptr noundef null) #23
  %4 = tail call fastcc i32 @rdbSaveInternal(i32 noundef 0, ptr noundef %0, ptr noundef null, i32 noundef 0)
  %.not = icmp eq i32 %4, 0
  br i1 %.not, label %8, label %5

5:                                                ; preds = %1
  %6 = tail call ptr @__errno_location() #28
  %7 = load i32, ptr %6, align 4, !tbaa !51
  tail call void @moduleFireServerEvent(i64 noundef 1, i32 noundef 4, ptr noundef null) #23
  store i32 %7, ptr %6, align 4, !tbaa !51
  br label %9

8:                                                ; preds = %1
  tail call void @moduleFireServerEvent(i64 noundef 1, i32 noundef 3, ptr noundef null) #23
  br label %9

9:                                                ; preds = %8, %5
  %.0 = phi i32 [ -1, %5 ], [ 0, %8 ]
  ret i32 %.0
}